; Function Attrs: mustprogress uwtable
define hidden noundef zeroext i1 @_ZN1q6ematch16flush_prop_queueEv(ptr noundef nonnull align 8 dereferenceable(2680) %0) local_unnamed_addr #3 align 2 {
  %2 = getelementptr inbounds nuw i8, ptr %0, i64 1240
  %3 = load ptr, ptr %2, align 8, !tbaa !548
  %4 = icmp eq ptr %3, null
  br i1 %4, label %_ZN6vectorIN1q6ematch4propELb0EjE5resetEv.exit, label %_ZNK6vectorIN1q6ematch4propELb0EjE5emptyEv.exit

_ZNK6vectorIN1q6ematch4propELb0EjE5emptyEv.exit:  ; preds = %1
  %5 = getelementptr inbounds i8, ptr %3, i64 -4
  %6 = load i32, ptr %5, align 4, !tbaa !586
  %7 = icmp eq i32 %6, 0
  br i1 %7, label %_ZN6vectorIN1q6ematch4propELb0EjE5resetEv.exit, label %_ZNK6vectorIN1q6ematch4propELb0EjE4sizeEv.exit.thread

_ZNK6vectorIN1q6ematch4propELb0EjE4sizeEv.exit.thread: ; preds = %_ZNK6vectorIN1q6ematch4propELb0EjE5emptyEv.exit, %15
  %indvars.iv = phi i64 [ %indvars.iv.next, %15 ], [ 0, %_ZNK6vectorIN1q6ematch4propELb0EjE5emptyEv.exit ]
  %8 = phi ptr [ %21, %15 ], [ %3, %_ZNK6vectorIN1q6ematch4propELb0EjE5emptyEv.exit ]
  %9 = getelementptr inbounds i8, ptr %8, i64 -4
  %10 = load i32, ptr %9, align 4, !tbaa !586
  %11 = zext i32 %10 to i64
  %12 = icmp samesign ult i64 %indvars.iv, %11
  br i1 %12, label %15, label %13

13:                                               ; preds = %_ZNK6vectorIN1q6ematch4propELb0EjE4sizeEv.exit.thread
  %14 = getelementptr inbounds i8, ptr %8, i64 -4
  store i32 0, ptr %14, align 4, !tbaa !586
  br label %_ZN6vectorIN1q6ematch4propELb0EjE5resetEv.exit

15:                                               ; preds = %_ZNK6vectorIN1q6ematch4propELb0EjE4sizeEv.exit.thread
  %16 = getelementptr inbounds nuw %"struct.q::ematch::prop", ptr %8, i64 %indvars.iv
  %17 = load i8, ptr %16, align 8, !tbaa !705, !range !575, !noundef !576
  %18 = trunc nuw i8 %17 to i1
  %19 = getelementptr inbounds nuw i8, ptr %16, i64 8
  %20 = load i64, ptr %19, align 8, !tbaa !708
  tail call void @_ZN1q6ematch9propagateEbjm(ptr noundef nonnull align 8 dereferenceable(2680) %0, i1 noundef zeroext %18, i32 poison, i64 noundef %20)
  %indvars.iv.next = add nuw nsw i64 %indvars.iv, 1
  %21 = load ptr, ptr %2, align 8, !tbaa !548
  %22 = icmp eq ptr %21, null
  br i1 %22, label %_ZN6vectorIN1q6ematch4propELb0EjE5resetEv.exit, label %_ZNK6vectorIN1q6ematch4propELb0EjE4sizeEv.exit.thread, !llvm.loop !779

_ZN6vectorIN1q6ematch4propELb0EjE5resetEv.exit:   ; preds = %15, %1, %13, %_ZNK6vectorIN1q6ematch4propELb0EjE5emptyEv.exit
  %.0 = phi i1 [ false, %_ZNK6vectorIN1q6ematch4propELb0EjE5emptyEv.exit ], [ true, %13 ], [ false, %1 ], [ true, %15 ]
  ret i1 %.0
}